; ModuleID = '14/895.c'
source_filename = "14/895.c"
target datalayout = "e-m:e-p270:32:32-p271:32:32-p272:64:64-i64:64-f80:128-n8:16:32:64-S128"
target triple = "x86_64-pc-linux-gnu"

%struct.student = type { i32, i32, i32, i32 }

@.str = private unnamed_addr constant [3 x i8] c"%d\00", align 1
@.str.1 = private unnamed_addr constant [7 x i8] c"%d%d%d\00", align 1
@stu = common dso_local global [100000 x %struct.student] zeroinitializer, align 16
@.str.2 = private unnamed_addr constant [7 x i8] c"%d %d\0A\00", align 1

; Function Attrs: noinline nounwind uwtable
define dso_local void @main() #0 {
  %1 = alloca i32, align 4
  %2 = alloca i32, align 4
  %3 = alloca i32, align 4
  %4 = alloca i32, align 4
  %5 = alloca i32, align 4
  %6 = call i32 (i8*, ...) @__isoc99_scanf(i8* getelementptr inbounds ([3 x i8], [3 x i8]* @.str, i64 0, i64 0), i32* %1)
  store i32 0, i32* %2, align 4
  br label %7

7:                                                ; preds = %25, %0
  %8 = load i32, i32* %2, align 4
  %9 = load i32, i32* %1, align 4
  %10 = icmp slt i32 %8, %9
  br i1 %10, label %11, label %28

11:                                               ; preds = %7
  %12 = load i32, i32* %2, align 4
  %13 = sext i32 %12 to i64
  %14 = getelementptr inbounds [100000 x %struct.student], [100000 x %struct.student]* @stu, i64 0, i64 %13
  %15 = getelementptr inbounds %struct.student, %struct.student* %14, i32 0, i32 0
  %16 = load i32, i32* %2, align 4
  %17 = sext i32 %16 to i64
  %18 = getelementptr inbounds [100000 x %struct.student], [100000 x %struct.student]* @stu, i64 0, i64 %17
  %19 = getelementptr inbounds %struct.student, %struct.student* %18, i32 0, i32 1
  %20 = load i32, i32* %2, align 4
  %21 = sext i32 %20 to i64
  %22 = getelementptr inbounds [100000 x %struct.student], [100000 x %struct.student]* @stu, i64 0, i64 %21
  %23 = getelementptr inbounds %struct.student, %struct.student* %22, i32 0, i32 2
  %24 = call i32 (i8*, ...) @__isoc99_scanf(i8* getelementptr inbounds ([7 x i8], [7 x i8]* @.str.1, i64 0, i64 0), i32* %15, i32* %19, i32* %23)
  br label %25

25:                                               ; preds = %11
  %26 = load i32, i32* %2, align 4
  %27 = add nsw i32 %26, 1
  store i32 %27, i32* %2, align 4
  br label %7

28:                                               ; preds = %7
  store i32 0, i32* %2, align 4
  br label %29

29:                                               ; preds = %49, %28
  %30 = load i32, i32* %2, align 4
  %31 = load i32, i32* %1, align 4
  %32 = icmp slt i32 %30, %31
  br i1 %32, label %33, label %52

33:                                               ; preds = %29
  %34 = load i32, i32* %2, align 4
  %35 = sext i32 %34 to i64
  %36 = getelementptr inbounds [100000 x %struct.student], [100000 x %struct.student]* @stu, i64 0, i64 %35
  %37 = getelementptr inbounds %struct.student, %struct.student* %36, i32 0, i32 1
  %38 = load i32, i32* %37, align 4
  %39 = load i32, i32* %2, align 4
  %40 = sext i32 %39 to i64
  %41 = getelementptr inbounds [100000 x %struct.student], [100000 x %struct.student]* @stu, i64 0, i64 %40
  %42 = getelementptr inbounds %struct.student, %struct.student* %41, i32 0, i32 2
  %43 = load i32, i32* %42, align 8
  %44 = add nsw i32 %38, %43
  %45 = load i32, i32* %2, align 4
  %46 = sext i32 %45 to i64
  %47 = getelementptr inbounds [100000 x %struct.student], [100000 x %struct.student]* @stu, i64 0, i64 %46
  %48 = getelementptr inbounds %struct.student, %struct.student* %47, i32 0, i32 3
  store i32 %44, i32* %48, align 4
  br label %49

49:                                               ; preds = %33
  %50 = load i32, i32* %2, align 4
  %51 = add nsw i32 %50, 1
  store i32 %51, i32* %2, align 4
  br label %29

52:                                               ; preds = %29
  store i32 0, i32* %2, align 4
  br label %53

53:                                               ; preds = %125, %52
  %54 = load i32, i32* %2, align 4
  %55 = icmp slt i32 %54, 3
  br i1 %55, label %56, label %128

56:                                               ; preds = %53
  %57 = load i32, i32* %1, align 4
  %58 = sub nsw i32 %57, 1
  %59 = load i32, i32* %2, align 4
  %60 = sub nsw i32 %58, %59
  store i32 %60, i32* %3, align 4
  br label %61

61:                                               ; preds = %121, %56
  %62 = load i32, i32* %3, align 4
  %63 = icmp sge i32 %62, 0
  br i1 %63, label %64, label %124

64:                                               ; preds = %61
  %65 = load i32, i32* %3, align 4
  %66 = sext i32 %65 to i64
  %67 = getelementptr inbounds [100000 x %struct.student], [100000 x %struct.student]* @stu, i64 0, i64 %66
  %68 = getelementptr inbounds %struct.student, %struct.student* %67, i32 0, i32 3
  %69 = load i32, i32* %68, align 4
  %70 = load i32, i32* %3, align 4
  %71 = add nsw i32 %70, 1
  %72 = sext i32 %71 to i64
  %73 = getelementptr inbounds [100000 x %struct.student], [100000 x %struct.student]* @stu, i64 0, i64 %72
  %74 = getelementptr inbounds %struct.student, %struct.student* %73, i32 0, i32 3
  %75 = load i32, i32* %74, align 4
  %76 = icmp slt i32 %69, %75
  br i1 %76, label %77, label %120

77:                                               ; preds = %64
  %78 = load i32, i32* %3, align 4
  %79 = sext i32 %78 to i64
  %80 = getelementptr inbounds [100000 x %struct.student], [100000 x %struct.student]* @stu, i64 0, i64 %79
  %81 = getelementptr inbounds %struct.student, %struct.student* %80, i32 0, i32 3
  %82 = load i32, i32* %81, align 4
  store i32 %82, i32* %4, align 4
  %83 = load i32, i32* %3, align 4
  %84 = add nsw i32 %83, 1
  %85 = sext i32 %84 to i64
  %86 = getelementptr inbounds [100000 x %struct.student], [100000 x %struct.student]* @stu, i64 0, i64 %85
  %87 = getelementptr inbounds %struct.student, %struct.student* %86, i32 0, i32 3
  %88 = load i32, i32* %87, align 4
  %89 = load i32, i32* %3, align 4
  %90 = sext i32 %89 to i64
  %91 = getelementptr inbounds [100000 x %struct.student], [100000 x %struct.student]* @stu, i64 0, i64 %90
  %92 = getelementptr inbounds %struct.student, %struct.student* %91, i32 0, i32 3
  store i32 %88, i32* %92, align 4
  %93 = load i32, i32* %4, align 4
  %94 = load i32, i32* %3, align 4
  %95 = add nsw i32 %94, 1
  %96 = sext i32 %95 to i64
  %97 = getelementptr inbounds [100000 x %struct.student], [100000 x %struct.student]* @stu, i64 0, i64 %96
  %98 = getelementptr inbounds %struct.student, %struct.student* %97, i32 0, i32 3
  store i32 %93, i32* %98, align 4
  %99 = load i32, i32* %3, align 4
  %100 = sext i32 %99 to i64
  %101 = getelementptr inbounds [100000 x %struct.student], [100000 x %struct.student]* @stu, i64 0, i64 %100
  %102 = getelementptr inbounds %struct.student, %struct.student* %101, i32 0, i32 0
  %103 = load i32, i32* %102, align 16
  store i32 %103, i32* %5, align 4
  %104 = load i32, i32* %3, align 4
  %105 = add nsw i32 %104, 1
  %106 = sext i32 %105 to i64
  %107 = getelementptr inbounds [100000 x %struct.student], [100000 x %struct.student]* @stu, i64 0, i64 %106
  %108 = getelementptr inbounds %struct.student, %struct.student* %107, i32 0, i32 0
  %109 = load i32, i32* %108, align 16
  %110 = load i32, i32* %3, align 4
  %111 = sext i32 %110 to i64
  %112 = getelementptr inbounds [100000 x %struct.student], [100000 x %struct.student]* @stu, i64 0, i64 %111
  %113 = getelementptr inbounds %struct.student, %struct.student* %112, i32 0, i32 0
  store i32 %109, i32* %113, align 16
  %114 = load i32, i32* %5, align 4
  %115 = load i32, i32* %3, align 4
  %116 = add nsw i32 %115, 1
  %117 = sext i32 %116 to i64
  %118 = getelementptr inbounds [100000 x %struct.student], [100000 x %struct.student]* @stu, i64 0, i64 %117
  %119 = getelementptr inbounds %struct.student, %struct.student* %118, i32 0, i32 0
  store i32 %114, i32* %119, align 16
  br label %120

120:                                              ; preds = %77, %64
  br label %121

121:                                              ; preds = %120
  %122 = load i32, i32* %3, align 4
  %123 = add nsw i32 %122, -1
  store i32 %123, i32* %3, align 4
  br label %61

124:                                              ; preds = %61
  br label %125

125:                                              ; preds = %124
  %126 = load i32, i32* %2, align 4
  %127 = add nsw i32 %126, 1
  store i32 %127, i32* %2, align 4
  br label %53

128:                                              ; preds = %53
  store i32 0, i32* %2, align 4
  br label %129

129:                                              ; preds = %144, %128
  %130 = load i32, i32* %2, align 4
  %131 = icmp slt i32 %130, 3
  br i1 %131, label %132, label %147

132:                                              ; preds = %129
  %133 = load i32, i32* %2, align 4
  %134 = sext i32 %133 to i64
  %135 = getelementptr inbounds [100000 x %struct.student], [100000 x %struct.student]* @stu, i64 0, i64 %134
  %136 = getelementptr inbounds %struct.student, %struct.student* %135, i32 0, i32 0
  %137 = load i32, i32* %136, align 16
  %138 = load i32, i32* %2, align 4
  %139 = sext i32 %138 to i64
  %140 = getelementptr inbounds [100000 x %struct.student], [100000 x %struct.student]* @stu, i64 0, i64 %139
  %141 = getelementptr inbounds %struct.student, %struct.student* %140, i32 0, i32 3
  %142 = load i32, i32* %141, align 4
  %143 = call i32 (i8*, ...) @printf(i8* getelementptr inbounds ([7 x i8], [7 x i8]* @.str.2, i64 0, i64 0), i32 %137, i32 %142)
  br label %144

144:                                              ; preds = %132
  %145 = load i32, i32* %2, align 4
  %146 = add nsw i32 %145, 1
  store i32 %146, i32* %2, align 4
  br label %129

147:                                              ; preds = %129
  ret void
}

declare dso_local i32 @__isoc99_scanf(i8*, ...) #1

declare dso_local i32 @printf(i8*, ...) #1


!llvm.module.flags = !{!0}
!llvm.ident = !{!1}

!0 = !{i32 1, !"wchar_size", i32 4}
!1 = !{!"clang version 10.0.0-4ubuntu1 "}
